target datalayout = "e-m:e-p270:32:32-p271:32:32-p272:64:64-i64:64-i128:128-f80:128-n8:16:32:64-S128"
target triple = "x86_64-pc-linux-gnu"

%struct.jpeg_decompress_struct = type { ptr, ptr, ptr, ptr, i32, i32, ptr, i32, i32, i32, i32, i32, i32, i32, double, i32, i32, i32, i32, i32, i32, i32, i32, i32, i32, i32, i32, i32, i32, i32, i32, i32, i32, ptr, i32, i32, i32, i32, i32, ptr, [4 x ptr], [4 x ptr], [4 x ptr], i32, ptr, i32, i32, [16 x i8], [16 x i8], [16 x i8], i32, i32, i8, i8, i8, i16, i16, i32, i8, i32, ptr, i32, i32, i32, i32, ptr, i32, [4 x ptr], i32, i32, i32, [10 x i32], i32, i32, i32, i32, i32, ptr, ptr, ptr, ptr, ptr, ptr, ptr, ptr, ptr, ptr, ptr }
%struct.jpeg_progress_mgr = type { ptr, i64, i64, i32, i32 }
%struct.jpeg_error_mgr = type { ptr, ptr, ptr, ptr, ptr, i32, %union.anon, i32, i64, ptr, i32, ptr, i32, i32 }
%union.anon = type { [8 x i32], [48 x i8] }
%struct.jpeg_decomp_master = type { ptr, ptr, i32, i32, i32, i32, [10 x i32], [10 x i32], i32, i32, ptr }
%struct.jpeg_d_coef_controller = type { ptr, ptr, ptr, ptr, ptr, ptr, i32, i32, i32, ptr }

; Function Attrs: nounwind uwtable
define i32 @jpeg_read_raw_data(ptr noundef %0, ptr noundef %1, i32 noundef %2) #0 {
  %4 = alloca i32, align 4
  %5 = alloca ptr, align 8
  %6 = alloca ptr, align 8
  %7 = alloca i32, align 4
  %8 = alloca i32, align 4
  %9 = alloca i32, align 4
  store ptr %0, ptr %5, align 8, !tbaa !3
  store ptr %1, ptr %6, align 8, !tbaa !136
  store i32 %2, ptr %7, align 4, !tbaa !41
  call void @llvm.lifetime.start.p0(i64 4, ptr %8) #4
  %10 = load ptr, ptr %5, align 8, !tbaa !3
  %11 = getelementptr inbounds nuw %struct.jpeg_decompress_struct, ptr %10, i32 0, i32 43
  %12 = load i32, ptr %11, align 8, !tbaa !58
  %13 = icmp ne i32 %12, 8
  br i1 %13, label %14, label %33

14:                                               ; preds = %3
  %15 = load ptr, ptr %5, align 8, !tbaa !3
  %16 = getelementptr inbounds nuw %struct.jpeg_decompress_struct, ptr %15, i32 0, i32 0
  %17 = load ptr, ptr %16, align 8, !tbaa !47
  %18 = getelementptr inbounds nuw %struct.jpeg_error_mgr, ptr %17, i32 0, i32 5
  store i32 15, ptr %18, align 8, !tbaa !48
  %19 = load ptr, ptr %5, align 8, !tbaa !3
  %20 = getelementptr inbounds nuw %struct.jpeg_decompress_struct, ptr %19, i32 0, i32 43
  %21 = load i32, ptr %20, align 8, !tbaa !58
  %22 = load ptr, ptr %5, align 8, !tbaa !3
  %23 = getelementptr inbounds nuw %struct.jpeg_decompress_struct, ptr %22, i32 0, i32 0
  %24 = load ptr, ptr %23, align 8, !tbaa !47
  %25 = getelementptr inbounds nuw %struct.jpeg_error_mgr, ptr %24, i32 0, i32 6
  %26 = getelementptr inbounds [8 x i32], ptr %25, i64 0, i64 0
  store i32 %21, ptr %26, align 4, !tbaa !50
  %27 = load ptr, ptr %5, align 8, !tbaa !3
  %28 = getelementptr inbounds nuw %struct.jpeg_decompress_struct, ptr %27, i32 0, i32 0
  %29 = load ptr, ptr %28, align 8, !tbaa !47
  %30 = getelementptr inbounds nuw %struct.jpeg_error_mgr, ptr %29, i32 0, i32 0
  %31 = load ptr, ptr %30, align 8, !tbaa !51
  %32 = load ptr, ptr %5, align 8, !tbaa !3
  call void %31(ptr noundef %32)
  br label %33

33:                                               ; preds = %14, %3
  %34 = load ptr, ptr %5, align 8, !tbaa !3
  %35 = getelementptr inbounds nuw %struct.jpeg_decompress_struct, ptr %34, i32 0, i32 77
  %36 = load ptr, ptr %35, align 8, !tbaa !52
  %37 = getelementptr inbounds nuw %struct.jpeg_decomp_master, ptr %36, i32 0, i32 3
  %38 = load i32, ptr %37, align 4, !tbaa !71
  %39 = icmp ne i32 %38, 0
  br i1 %39, label %40, label %51

40:                                               ; preds = %33
  %41 = load ptr, ptr %5, align 8, !tbaa !3
  %42 = getelementptr inbounds nuw %struct.jpeg_decompress_struct, ptr %41, i32 0, i32 0
  %43 = load ptr, ptr %42, align 8, !tbaa !47
  %44 = getelementptr inbounds nuw %struct.jpeg_error_mgr, ptr %43, i32 0, i32 5
  store i32 47, ptr %44, align 8, !tbaa !48
  %45 = load ptr, ptr %5, align 8, !tbaa !3
  %46 = getelementptr inbounds nuw %struct.jpeg_decompress_struct, ptr %45, i32 0, i32 0
  %47 = load ptr, ptr %46, align 8, !tbaa !47
  %48 = getelementptr inbounds nuw %struct.jpeg_error_mgr, ptr %47, i32 0, i32 0
  %49 = load ptr, ptr %48, align 8, !tbaa !51
  %50 = load ptr, ptr %5, align 8, !tbaa !3
  call void %49(ptr noundef %50)
  br label %51

51:                                               ; preds = %40, %33
  %52 = load ptr, ptr %5, align 8, !tbaa !3
  %53 = getelementptr inbounds nuw %struct.jpeg_decompress_struct, ptr %52, i32 0, i32 5
  %54 = load i32, ptr %53, align 4, !tbaa !8
  %55 = icmp ne i32 %54, 206
  br i1 %55, label %56, label %75

56:                                               ; preds = %51
  %57 = load ptr, ptr %5, align 8, !tbaa !3
  %58 = getelementptr inbounds nuw %struct.jpeg_decompress_struct, ptr %57, i32 0, i32 0
  %59 = load ptr, ptr %58, align 8, !tbaa !47
  %60 = getelementptr inbounds nuw %struct.jpeg_error_mgr, ptr %59, i32 0, i32 5
  store i32 20, ptr %60, align 8, !tbaa !48
  %61 = load ptr, ptr %5, align 8, !tbaa !3
  %62 = getelementptr inbounds nuw %struct.jpeg_decompress_struct, ptr %61, i32 0, i32 5
  %63 = load i32, ptr %62, align 4, !tbaa !8
  %64 = load ptr, ptr %5, align 8, !tbaa !3
  %65 = getelementptr inbounds nuw %struct.jpeg_decompress_struct, ptr %64, i32 0, i32 0
  %66 = load ptr, ptr %65, align 8, !tbaa !47
  %67 = getelementptr inbounds nuw %struct.jpeg_error_mgr, ptr %66, i32 0, i32 6
  %68 = getelementptr inbounds [8 x i32], ptr %67, i64 0, i64 0
  store i32 %63, ptr %68, align 4, !tbaa !50
  %69 = load ptr, ptr %5, align 8, !tbaa !3
  %70 = getelementptr inbounds nuw %struct.jpeg_decompress_struct, ptr %69, i32 0, i32 0
  %71 = load ptr, ptr %70, align 8, !tbaa !47
  %72 = getelementptr inbounds nuw %struct.jpeg_error_mgr, ptr %71, i32 0, i32 0
  %73 = load ptr, ptr %72, align 8, !tbaa !51
  %74 = load ptr, ptr %5, align 8, !tbaa !3
  call void %73(ptr noundef %74)
  br label %75

75:                                               ; preds = %56, %51
  %76 = load ptr, ptr %5, align 8, !tbaa !3
  %77 = getelementptr inbounds nuw %struct.jpeg_decompress_struct, ptr %76, i32 0, i32 34
  %78 = load i32, ptr %77, align 8, !tbaa !55
  %79 = load ptr, ptr %5, align 8, !tbaa !3
  %80 = getelementptr inbounds nuw %struct.jpeg_decompress_struct, ptr %79, i32 0, i32 28
  %81 = load i32, ptr %80, align 4, !tbaa !57
  %82 = icmp uge i32 %78, %81
  br i1 %82, label %83, label %94

83:                                               ; preds = %75
  %84 = load ptr, ptr %5, align 8, !tbaa !3
  %85 = getelementptr inbounds nuw %struct.jpeg_decompress_struct, ptr %84, i32 0, i32 0
  %86 = load ptr, ptr %85, align 8, !tbaa !47
  %87 = getelementptr inbounds nuw %struct.jpeg_error_mgr, ptr %86, i32 0, i32 5
  store i32 123, ptr %87, align 8, !tbaa !48
  %88 = load ptr, ptr %5, align 8, !tbaa !3
  %89 = getelementptr inbounds nuw %struct.jpeg_decompress_struct, ptr %88, i32 0, i32 0
  %90 = load ptr, ptr %89, align 8, !tbaa !47
  %91 = getelementptr inbounds nuw %struct.jpeg_error_mgr, ptr %90, i32 0, i32 1
  %92 = load ptr, ptr %91, align 8, !tbaa !96
  %93 = load ptr, ptr %5, align 8, !tbaa !3
  call void %92(ptr noundef %93, i32 noundef -1)
  store i32 0, ptr %4, align 4
  store i32 1, ptr %9, align 4
  br label %188

94:                                               ; preds = %75
  %95 = load ptr, ptr %5, align 8, !tbaa !3
  %96 = getelementptr inbounds nuw %struct.jpeg_decompress_struct, ptr %95, i32 0, i32 2
  %97 = load ptr, ptr %96, align 8, !tbaa !36
  %98 = icmp ne ptr %97, null
  br i1 %98, label %99, label %122

99:                                               ; preds = %94
  %100 = load ptr, ptr %5, align 8, !tbaa !3
  %101 = getelementptr inbounds nuw %struct.jpeg_decompress_struct, ptr %100, i32 0, i32 34
  %102 = load i32, ptr %101, align 8, !tbaa !55
  %103 = zext i32 %102 to i64
  %104 = load ptr, ptr %5, align 8, !tbaa !3
  %105 = getelementptr inbounds nuw %struct.jpeg_decompress_struct, ptr %104, i32 0, i32 2
  %106 = load ptr, ptr %105, align 8, !tbaa !36
  %107 = getelementptr inbounds nuw %struct.jpeg_progress_mgr, ptr %106, i32 0, i32 1
  store i64 %103, ptr %107, align 8, !tbaa !42
  %108 = load ptr, ptr %5, align 8, !tbaa !3
  %109 = getelementptr inbounds nuw %struct.jpeg_decompress_struct, ptr %108, i32 0, i32 28
  %110 = load i32, ptr %109, align 4, !tbaa !57
  %111 = zext i32 %110 to i64
  %112 = load ptr, ptr %5, align 8, !tbaa !3
  %113 = getelementptr inbounds nuw %struct.jpeg_decompress_struct, ptr %112, i32 0, i32 2
  %114 = load ptr, ptr %113, align 8, !tbaa !36
  %115 = getelementptr inbounds nuw %struct.jpeg_progress_mgr, ptr %114, i32 0, i32 2
  store i64 %111, ptr %115, align 8, !tbaa !43
  %116 = load ptr, ptr %5, align 8, !tbaa !3
  %117 = getelementptr inbounds nuw %struct.jpeg_decompress_struct, ptr %116, i32 0, i32 2
  %118 = load ptr, ptr %117, align 8, !tbaa !36
  %119 = getelementptr inbounds nuw %struct.jpeg_progress_mgr, ptr %118, i32 0, i32 0
  %120 = load ptr, ptr %119, align 8, !tbaa !37
  %121 = load ptr, ptr %5, align 8, !tbaa !3
  call void %120(ptr noundef %121)
  br label %122

122:                                              ; preds = %99, %94
  %123 = load ptr, ptr %5, align 8, !tbaa !3
  %124 = getelementptr inbounds nuw %struct.jpeg_decompress_struct, ptr %123, i32 0, i32 62
  %125 = load i32, ptr %124, align 4, !tbaa !79
  %126 = load ptr, ptr %5, align 8, !tbaa !3
  %127 = getelementptr inbounds nuw %struct.jpeg_decompress_struct, ptr %126, i32 0, i32 63
  %128 = load i32, ptr %127, align 8, !tbaa !75
  %129 = mul nsw i32 %125, %128
  store i32 %129, ptr %8, align 4, !tbaa !41
  %130 = load i32, ptr %7, align 4, !tbaa !41
  %131 = load i32, ptr %8, align 4, !tbaa !41
  %132 = icmp ult i32 %130, %131
  br i1 %132, label %133, label %144

133:                                              ; preds = %122
  %134 = load ptr, ptr %5, align 8, !tbaa !3
  %135 = getelementptr inbounds nuw %struct.jpeg_decompress_struct, ptr %134, i32 0, i32 0
  %136 = load ptr, ptr %135, align 8, !tbaa !47
  %137 = getelementptr inbounds nuw %struct.jpeg_error_mgr, ptr %136, i32 0, i32 5
  store i32 23, ptr %137, align 8, !tbaa !48
  %138 = load ptr, ptr %5, align 8, !tbaa !3
  %139 = getelementptr inbounds nuw %struct.jpeg_decompress_struct, ptr %138, i32 0, i32 0
  %140 = load ptr, ptr %139, align 8, !tbaa !47
  %141 = getelementptr inbounds nuw %struct.jpeg_error_mgr, ptr %140, i32 0, i32 0
  %142 = load ptr, ptr %141, align 8, !tbaa !51
  %143 = load ptr, ptr %5, align 8, !tbaa !3
  call void %142(ptr noundef %143)
  br label %144

144:                                              ; preds = %133, %122
  %145 = load ptr, ptr %5, align 8, !tbaa !3
  %146 = getelementptr inbounds nuw %struct.jpeg_decompress_struct, ptr %145, i32 0, i32 79
  %147 = load ptr, ptr %146, align 8, !tbaa !97
  %148 = getelementptr inbounds nuw %struct.jpeg_d_coef_controller, ptr %147, i32 0, i32 3
  %149 = load ptr, ptr %148, align 8, !tbaa !143
  %150 = icmp eq ptr %149, null
  br i1 %150, label %151, label %170

151:                                              ; preds = %144
  %152 = load ptr, ptr %5, align 8, !tbaa !3
  %153 = getelementptr inbounds nuw %struct.jpeg_decompress_struct, ptr %152, i32 0, i32 0
  %154 = load ptr, ptr %153, align 8, !tbaa !47
  %155 = getelementptr inbounds nuw %struct.jpeg_error_mgr, ptr %154, i32 0, i32 5
  store i32 15, ptr %155, align 8, !tbaa !48
  %156 = load ptr, ptr %5, align 8, !tbaa !3
  %157 = getelementptr inbounds nuw %struct.jpeg_decompress_struct, ptr %156, i32 0, i32 43
  %158 = load i32, ptr %157, align 8, !tbaa !58
  %159 = load ptr, ptr %5, align 8, !tbaa !3
  %160 = getelementptr inbounds nuw %struct.jpeg_decompress_struct, ptr %159, i32 0, i32 0
  %161 = load ptr, ptr %160, align 8, !tbaa !47
  %162 = getelementptr inbounds nuw %struct.jpeg_error_mgr, ptr %161, i32 0, i32 6
  %163 = getelementptr inbounds [8 x i32], ptr %162, i64 0, i64 0
  store i32 %158, ptr %163, align 4, !tbaa !50
  %164 = load ptr, ptr %5, align 8, !tbaa !3
  %165 = getelementptr inbounds nuw %struct.jpeg_decompress_struct, ptr %164, i32 0, i32 0
  %166 = load ptr, ptr %165, align 8, !tbaa !47
  %167 = getelementptr inbounds nuw %struct.jpeg_error_mgr, ptr %166, i32 0, i32 0
  %168 = load ptr, ptr %167, align 8, !tbaa !51
  %169 = load ptr, ptr %5, align 8, !tbaa !3
  call void %168(ptr noundef %169)
  br label %170

170:                                              ; preds = %151, %144
  %171 = load ptr, ptr %5, align 8, !tbaa !3
  %172 = getelementptr inbounds nuw %struct.jpeg_decompress_struct, ptr %171, i32 0, i32 79
  %173 = load ptr, ptr %172, align 8, !tbaa !97
  %174 = getelementptr inbounds nuw %struct.jpeg_d_coef_controller, ptr %173, i32 0, i32 3
  %175 = load ptr, ptr %174, align 8, !tbaa !143
  %176 = load ptr, ptr %5, align 8, !tbaa !3
  %177 = load ptr, ptr %6, align 8, !tbaa !136
  %178 = call i32 %175(ptr noundef %176, ptr noundef %177)
  %179 = icmp ne i32 %178, 0
  br i1 %179, label %181, label %180

180:                                              ; preds = %170
  store i32 0, ptr %4, align 4
  store i32 1, ptr %9, align 4
  br label %188

181:                                              ; preds = %170
  %182 = load i32, ptr %8, align 4, !tbaa !41
  %183 = load ptr, ptr %5, align 8, !tbaa !3
  %184 = getelementptr inbounds nuw %struct.jpeg_decompress_struct, ptr %183, i32 0, i32 34
  %185 = load i32, ptr %184, align 8, !tbaa !55
  %186 = add i32 %185, %182
  store i32 %186, ptr %184, align 8, !tbaa !55
  %187 = load i32, ptr %8, align 4, !tbaa !41
  store i32 %187, ptr %4, align 4
  store i32 1, ptr %9, align 4
  br label %188

188:                                              ; preds = %181, %180, %83
  call void @llvm.lifetime.end.p0(i64 4, ptr %8) #4
  %189 = load i32, ptr %4, align 4
  ret i32 %189
}