; Function Attrs: nounwind uwtable
define i32 @jpeg_read_raw_data(ptr noundef %0, ptr noundef %1, i32 noundef %2) local_unnamed_addr #0 {
  %4 = getelementptr inbounds nuw i8, ptr %0, i64 296
  %5 = load i32, ptr %4, align 8, !tbaa !55
  %.not = icmp eq i32 %5, 8
  br i1 %.not, label %12, label %6

6:                                                ; preds = %3
  %7 = load ptr, ptr %0, align 8, !tbaa !44
  %8 = getelementptr inbounds nuw i8, ptr %7, i64 40
  store i32 15, ptr %8, align 8, !tbaa !45
  %9 = getelementptr inbounds nuw i8, ptr %7, i64 44
  store i32 %5, ptr %9, align 4, !tbaa !47
  %10 = load ptr, ptr %0, align 8, !tbaa !44
  %11 = load ptr, ptr %10, align 8, !tbaa !48
  tail call void %11(ptr noundef nonnull %0) #5
  br label %12

12:                                               ; preds = %6, %3
  %13 = getelementptr inbounds nuw i8, ptr %0, i64 544
  %14 = load ptr, ptr %13, align 8, !tbaa !49
  %15 = getelementptr inbounds nuw i8, ptr %14, i64 20
  %16 = load i32, ptr %15, align 4, !tbaa !66
  %.not49 = icmp eq i32 %16, 0
  br i1 %.not49, label %21, label %17

17:                                               ; preds = %12
  %18 = load ptr, ptr %0, align 8, !tbaa !44
  %19 = getelementptr inbounds nuw i8, ptr %18, i64 40
  store i32 47, ptr %19, align 8, !tbaa !45
  %20 = load ptr, ptr %18, align 8, !tbaa !48
  tail call void %20(ptr noundef nonnull %0) #5
  br label %21

21:                                               ; preds = %17, %12
  %22 = getelementptr inbounds nuw i8, ptr %0, i64 36
  %23 = load i32, ptr %22, align 4, !tbaa !3
  %.not50 = icmp eq i32 %23, 206
  br i1 %.not50, label %30, label %24

24:                                               ; preds = %21
  %25 = load ptr, ptr %0, align 8, !tbaa !44
  %26 = getelementptr inbounds nuw i8, ptr %25, i64 40
  store i32 20, ptr %26, align 8, !tbaa !45
  %27 = getelementptr inbounds nuw i8, ptr %25, i64 44
  store i32 %23, ptr %27, align 4, !tbaa !47
  %28 = load ptr, ptr %0, align 8, !tbaa !44
  %29 = load ptr, ptr %28, align 8, !tbaa !48
  tail call void %29(ptr noundef nonnull %0) #5
  br label %30

30:                                               ; preds = %24, %21
  %31 = getelementptr inbounds nuw i8, ptr %0, i64 168
  %32 = load i32, ptr %31, align 8, !tbaa !52
  %33 = getelementptr inbounds nuw i8, ptr %0, i64 140
  %34 = load i32, ptr %33, align 4, !tbaa !54
  %.not51 = icmp ult i32 %32, %34
  br i1 %.not51, label %40, label %35

35:                                               ; preds = %30
  %36 = load ptr, ptr %0, align 8, !tbaa !44
  %37 = getelementptr inbounds nuw i8, ptr %36, i64 40
  store i32 123, ptr %37, align 8, !tbaa !45
  %38 = getelementptr inbounds nuw i8, ptr %36, i64 8
  %39 = load ptr, ptr %38, align 8, !tbaa !91
  tail call void %39(ptr noundef nonnull %0, i32 noundef -1) #5
  br label %79

40:                                               ; preds = %30
  %41 = getelementptr inbounds nuw i8, ptr %0, i64 16
  %42 = load ptr, ptr %41, align 8, !tbaa !34
  %.not52 = icmp eq ptr %42, null
  br i1 %.not52, label %49, label %43

43:                                               ; preds = %40
  %44 = zext i32 %32 to i64
  %45 = getelementptr inbounds nuw i8, ptr %42, i64 8
  store i64 %44, ptr %45, align 8, !tbaa !39
  %46 = zext i32 %34 to i64
  %47 = getelementptr inbounds nuw i8, ptr %42, i64 16
  store i64 %46, ptr %47, align 8, !tbaa !40
  %48 = load ptr, ptr %42, align 8, !tbaa !35
  tail call void %48(ptr noundef nonnull %0) #5
  br label %49

49:                                               ; preds = %43, %40
  %50 = getelementptr inbounds nuw i8, ptr %0, i64 412
  %51 = load i32, ptr %50, align 4, !tbaa !75
  %52 = getelementptr inbounds nuw i8, ptr %0, i64 416
  %53 = load i32, ptr %52, align 8, !tbaa !71
  %54 = mul nsw i32 %53, %51
  %55 = icmp ult i32 %2, %54
  br i1 %55, label %56, label %60

56:                                               ; preds = %49
  %57 = load ptr, ptr %0, align 8, !tbaa !44
  %58 = getelementptr inbounds nuw i8, ptr %57, i64 40
  store i32 23, ptr %58, align 8, !tbaa !45
  %59 = load ptr, ptr %57, align 8, !tbaa !48
  tail call void %59(ptr noundef nonnull %0) #5
  br label %60

60:                                               ; preds = %56, %49
  %61 = getelementptr inbounds nuw i8, ptr %0, i64 560
  %62 = load ptr, ptr %61, align 8, !tbaa !92
  %63 = getelementptr inbounds nuw i8, ptr %62, i64 24
  %64 = load ptr, ptr %63, align 8, !tbaa !140
  %65 = icmp eq ptr %64, null
  br i1 %65, label %66, label %73

66:                                               ; preds = %60
  %67 = load ptr, ptr %0, align 8, !tbaa !44
  %68 = getelementptr inbounds nuw i8, ptr %67, i64 40
  store i32 15, ptr %68, align 8, !tbaa !45
  %69 = load i32, ptr %4, align 8, !tbaa !55
  %70 = getelementptr inbounds nuw i8, ptr %67, i64 44
  store i32 %69, ptr %70, align 4, !tbaa !47
  %71 = load ptr, ptr %0, align 8, !tbaa !44
  %72 = load ptr, ptr %71, align 8, !tbaa !48
  tail call void %72(ptr noundef nonnull %0) #5
  %.pre = load ptr, ptr %61, align 8, !tbaa !92
  %.phi.trans.insert = getelementptr inbounds nuw i8, ptr %.pre, i64 24
  %.pre54 = load ptr, ptr %.phi.trans.insert, align 8, !tbaa !140
  br label %73

73:                                               ; preds = %66, %60
  %74 = phi ptr [ %.pre54, %66 ], [ %64, %60 ]
  %75 = tail call i32 %74(ptr noundef nonnull %0, ptr noundef %1) #5
  %.not53 = icmp eq i32 %75, 0
  br i1 %.not53, label %79, label %76

76:                                               ; preds = %73
  %77 = load i32, ptr %31, align 8, !tbaa !52
  %78 = add i32 %77, %54
  store i32 %78, ptr %31, align 8, !tbaa !52
  br label %79

79:                                               ; preds = %73, %76, %35
  %.0 = phi i32 [ 0, %35 ], [ %54, %76 ], [ 0, %73 ]
  ret i32 %.0
}